; Function Attrs: null_pointer_is_valid sspstrong uwtable
define void @fvalue_cleanup(ptr noundef %0) local_unnamed_addr #0 {
  %2 = load ptr, ptr %0, align 8
  %3 = getelementptr inbounds nuw i8, ptr %2, i64 24
  %4 = load ptr, ptr %3, align 8
  %.not = icmp eq ptr %4, null
  br i1 %.not, label %6, label %5

5:                                                ; preds = %1
  tail call void %4(ptr noundef %0)
  br label %6

6:                                                ; preds = %1, %5
  ret void
}